target datalayout = "e-m:e-p270:32:32-p271:32:32-p272:64:64-i64:64-i128:128-f80:128-n8:16:32:64-S128"
target triple = "x86_64-pc-linux-gnu"

%struct.shape_functions = type { ptr, ptr, ptr, ptr, ptr, ptr }
%struct.pointf_s = type { double, double }
%struct.Agobj_s = type { %struct.Agtag_s, ptr }
%struct.Agtag_s = type { i32, i64 }
%struct.Agnodeinfo_t = type { %struct.Agrec_s, ptr, ptr, %struct.pointf_s, double, double, %struct.boxf, double, double, double, double, double, ptr, ptr, ptr, i8, i8, i8, i8, i32, i32, i32, ptr, double, i8, i8, ptr, ptr, i8, i64, i8, i8, i8, ptr, ptr, %struct.elist, %struct.elist, %struct.elist, %struct.elist, %struct.elist, ptr, i32, ptr, i32, i32, double, %struct.elist, %struct.elist, %struct.elist, %struct.elist, ptr, i32, i32, i32, [1 x double] }
%struct.Agrec_s = type { ptr, ptr }
%struct.boxf = type { %struct.pointf_s, %struct.pointf_s }
%struct.elist = type { ptr, i64 }
%struct.shape_desc = type { ptr, ptr, ptr, i8 }

; Function Attrs: nounwind uwtable
define i32 @shapeOf(ptr noundef %0) #0 {
  %2 = alloca i32, align 4
  %3 = alloca ptr, align 8
  %4 = alloca ptr, align 8
  %5 = alloca ptr, align 8
  %6 = alloca i32, align 4
  store ptr %0, ptr %3, align 8, !tbaa !35
  call void @llvm.lifetime.start.p0(i64 8, ptr %4) #13
  %7 = load ptr, ptr %3, align 8, !tbaa !35
  %8 = getelementptr inbounds nuw %struct.Agobj_s, ptr %7, i32 0, i32 1
  %9 = load ptr, ptr %8, align 8, !tbaa !37
  %10 = getelementptr inbounds nuw %struct.Agnodeinfo_t, ptr %9, i32 0, i32 1
  %11 = load ptr, ptr %10, align 8, !tbaa !41
  store ptr %11, ptr %4, align 8, !tbaa !53
  call void @llvm.lifetime.start.p0(i64 8, ptr %5) #13
  %12 = load ptr, ptr %4, align 8, !tbaa !53
  %13 = icmp ne ptr %12, null
  br i1 %13, label %15, label %14

14:                                               ; preds = %1
  store i32 0, ptr %2, align 4
  store i32 1, ptr %6, align 4
  br label %41

15:                                               ; preds = %1
  %16 = load ptr, ptr %3, align 8, !tbaa !35
  %17 = getelementptr inbounds nuw %struct.Agobj_s, ptr %16, i32 0, i32 1
  %18 = load ptr, ptr %17, align 8, !tbaa !37
  %19 = getelementptr inbounds nuw %struct.Agnodeinfo_t, ptr %18, i32 0, i32 1
  %20 = load ptr, ptr %19, align 8, !tbaa !41
  %21 = getelementptr inbounds nuw %struct.shape_desc, ptr %20, i32 0, i32 1
  %22 = load ptr, ptr %21, align 8, !tbaa !54
  %23 = getelementptr inbounds nuw %struct.shape_functions, ptr %22, i32 0, i32 0
  %24 = load ptr, ptr %23, align 8, !tbaa !58
  store ptr %24, ptr %5, align 8, !tbaa !34
  %25 = load ptr, ptr %5, align 8, !tbaa !34
  %26 = icmp eq ptr %25, @poly_init
  br i1 %26, label %27, label %28

27:                                               ; preds = %15
  store i32 1, ptr %2, align 4
  store i32 1, ptr %6, align 4
  br label %41

28:                                               ; preds = %15
  %29 = load ptr, ptr %5, align 8, !tbaa !34
  %30 = icmp eq ptr %29, @record_init
  br i1 %30, label %31, label %32

31:                                               ; preds = %28
  store i32 2, ptr %2, align 4
  store i32 1, ptr %6, align 4
  br label %41

32:                                               ; preds = %28
  %33 = load ptr, ptr %5, align 8, !tbaa !34
  %34 = icmp eq ptr %33, @point_init
  br i1 %34, label %35, label %36

35:                                               ; preds = %32
  store i32 3, ptr %2, align 4
  store i32 1, ptr %6, align 4
  br label %41

36:                                               ; preds = %32
  %37 = load ptr, ptr %5, align 8, !tbaa !34
  %38 = icmp eq ptr %37, @epsf_init
  br i1 %38, label %39, label %40

39:                                               ; preds = %36
  store i32 4, ptr %2, align 4
  store i32 1, ptr %6, align 4
  br label %41

40:                                               ; preds = %36
  store i32 0, ptr %2, align 4
  store i32 1, ptr %6, align 4
  br label %41

41:                                               ; preds = %40, %39, %35, %31, %27, %14
  call void @llvm.lifetime.end.p0(i64 8, ptr %5) #13
  call void @llvm.lifetime.end.p0(i64 8, ptr %4) #13
  %42 = load i32, ptr %2, align 4
  ret i32 %42
}