; Function Attrs: mustprogress nofree norecurse nosync nounwind willreturn memory(read, inaccessiblemem: none) uwtable
define range(i32 0, 5) i32 @shapeOf(ptr noundef readonly captures(none) %0) local_unnamed_addr #11 {
  %2 = getelementptr inbounds nuw i8, ptr %0, i64 16
  %3 = load ptr, ptr %2, align 8, !tbaa !21
  %4 = getelementptr inbounds nuw i8, ptr %3, i64 16
  %5 = load ptr, ptr %4, align 8, !tbaa !26
  %.not = icmp eq ptr %5, null
  br i1 %.not, label %17, label %6

6:                                                ; preds = %1
  %7 = getelementptr inbounds nuw i8, ptr %5, i64 8
  %8 = load ptr, ptr %7, align 8, !tbaa !40
  %9 = load ptr, ptr %8, align 8, !tbaa !44
  %10 = icmp eq ptr %9, @poly_init
  br i1 %10, label %17, label %11

11:                                               ; preds = %6
  %12 = icmp eq ptr %9, @record_init
  br i1 %12, label %17, label %13

13:                                               ; preds = %11
  %14 = icmp eq ptr %9, @point_init
  br i1 %14, label %17, label %15

15:                                               ; preds = %13
  %16 = icmp eq ptr %9, @epsf_init
  %. = select i1 %16, i32 4, i32 0
  br label %17

17:                                               ; preds = %15, %13, %11, %6, %1
  %.0 = phi i32 [ 0, %1 ], [ 1, %6 ], [ 2, %11 ], [ 3, %13 ], [ %., %15 ]
  ret i32 %.0
}